; ModuleID = 'source-C-CXX/53/1256.cpp'
source_filename = "source-C-CXX/53/1256.cpp"
target datalayout = "e-m:e-p270:32:32-p271:32:32-p272:64:64-i64:64-f80:128-n8:16:32:64-S128"
target triple = "x86_64-pc-linux-gnu"

%"class.std::ios_base::Init" = type { i8 }
%"class.std::basic_istream" = type { i32 (...)**, i64, %"class.std::basic_ios" }
%"class.std::basic_ios" = type { %"class.std::ios_base", %"class.std::basic_ostream"*, i8, i8, %"class.std::basic_streambuf"*, %"class.std::ctype"*, %"class.std::num_put"*, %"class.std::num_get"* }
%"class.std::ios_base" = type { i32 (...)**, i64, i64, i32, i32, i32, %"struct.std::ios_base::_Callback_list"*, %"struct.std::ios_base::_Words", [8 x %"struct.std::ios_base::_Words"], i32, %"struct.std::ios_base::_Words"*, %"class.std::locale" }
%"struct.std::ios_base::_Callback_list" = type { %"struct.std::ios_base::_Callback_list"*, void (i32, %"class.std::ios_base"*, i32)*, i32, i32 }
%"struct.std::ios_base::_Words" = type { i8*, i64 }
%"class.std::locale" = type { %"class.std::locale::_Impl"* }
%"class.std::locale::_Impl" = type { i32, %"class.std::locale::facet"**, i64, %"class.std::locale::facet"**, i8** }
%"class.std::locale::facet" = type <{ i32 (...)**, i32, [4 x i8] }>
%"class.std::basic_ostream" = type { i32 (...)**, %"class.std::basic_ios" }
%"class.std::basic_streambuf" = type { i32 (...)**, i8*, i8*, i8*, i8*, i8*, i8*, %"class.std::locale" }
%"class.std::ctype" = type <{ %"class.std::locale::facet.base", [4 x i8], %struct.__locale_struct*, i8, [7 x i8], i32*, i32*, i16*, i8, [256 x i8], [256 x i8], i8, [6 x i8] }>
%"class.std::locale::facet.base" = type <{ i32 (...)**, i32 }>
%struct.__locale_struct = type { [13 x %struct.__locale_data*], i16*, i32*, i32*, [13 x i8*] }
%struct.__locale_data = type opaque
%"class.std::num_put" = type { %"class.std::locale::facet.base", [4 x i8] }
%"class.std::num_get" = type { %"class.std::locale::facet.base", [4 x i8] }

@_ZStL8__ioinit = internal global %"class.std::ios_base::Init" zeroinitializer, align 1
@__dso_handle = external hidden global i8
@i = dso_local local_unnamed_addr global i32 0, align 4
@m = dso_local global i32 0, align 4
@k = dso_local global i32 0, align 4
@_ZSt3cin = external global %"class.std::basic_istream", align 8
@_ZSt4cout = external global %"class.std::basic_ostream", align 8
@llvm.global_ctors = appending global [1 x { i32, void ()*, i8* }] [{ i32, void ()*, i8* } { i32 65535, void ()* @_GLOBAL__sub_I_1256.cpp, i8* null }]

declare void @_ZNSt8ios_base4InitC1Ev(%"class.std::ios_base::Init"* nonnull align 1 dereferenceable(1)) unnamed_addr #0

; Function Attrs: nounwind
declare void @_ZNSt8ios_base4InitD1Ev(%"class.std::ios_base::Init"* nonnull align 1 dereferenceable(1)) unnamed_addr #1

; Function Attrs: nofree nounwind
declare i32 @__cxa_atexit(void (i8*)*, i8*, i8*) local_unnamed_addr #2

; Function Attrs: mustprogress nofree nosync nounwind sspstrong uwtable
define dso_local i32 @_Z4amnti(i32 %0) local_unnamed_addr #3 {
  %2 = load i32, i32* @m, align 4, !tbaa !5
  %3 = add nsw i32 %2, -1
  %4 = load i32, i32* @k, align 4
  %5 = srem i32 %0, %3
  %6 = icmp eq i32 %5, 0
  %7 = load i32, i32* @i, align 4, !tbaa !5
  br i1 %6, label %8, label %19

8:                                                ; preds = %1, %12
  %9 = phi i32 [ %13, %12 ], [ %7, %1 ]
  %10 = phi i32 [ %16, %12 ], [ %0, %1 ]
  %11 = icmp slt i32 %9, %2
  br i1 %11, label %12, label %19

12:                                               ; preds = %8
  %13 = add nsw i32 %9, 1
  store i32 %13, i32* @i, align 4, !tbaa !5
  %14 = sdiv i32 %10, %3
  %15 = mul nsw i32 %14, %2
  %16 = add nsw i32 %15, %4
  %17 = srem i32 %16, %3
  %18 = icmp eq i32 %17, 0
  br i1 %18, label %8, label %19

19:                                               ; preds = %12, %8, %1
  %20 = phi i32 [ %7, %1 ], [ %9, %8 ], [ %13, %12 ]
  %21 = phi i32 [ %0, %1 ], [ %10, %8 ], [ %16, %12 ]
  %22 = icmp eq i32 %20, %2
  %23 = select i1 %22, i32 %21, i32 0
  ret i32 %23
}

; Function Attrs: mustprogress norecurse sspstrong uwtable
define dso_local i32 @main() local_unnamed_addr #4 {
  %1 = tail call nonnull align 8 dereferenceable(16) %"class.std::basic_istream"* @_ZNSirsERi(%"class.std::basic_istream"* nonnull align 8 dereferenceable(16) @_ZSt3cin, i32* nonnull align 4 dereferenceable(4) @m)
  %2 = tail call nonnull align 8 dereferenceable(16) %"class.std::basic_istream"* @_ZNSirsERi(%"class.std::basic_istream"* nonnull align 8 dereferenceable(16) %1, i32* nonnull align 4 dereferenceable(4) @k)
  %3 = load i32, i32* @m, align 4, !tbaa !5
  %4 = load i32, i32* @k, align 4
  %5 = load i32, i32* @i, align 4, !tbaa !5
  %6 = add nsw i32 %3, -1
  br label %7

7:                                                ; preds = %31, %0
  %8 = phi i32 [ %5, %0 ], [ 0, %31 ]
  %9 = phi i32 [ 1, %0 ], [ %32, %31 ]
  %10 = srem i32 %9, %6
  %11 = icmp eq i32 %10, 0
  br i1 %11, label %12, label %25

12:                                               ; preds = %7
  %13 = call i32 @llvm.smax.i32(i32 %3, i32 %8)
  br label %14

14:                                               ; preds = %12, %18
  %15 = phi i32 [ %19, %18 ], [ %8, %12 ]
  %16 = phi i32 [ %22, %18 ], [ %9, %12 ]
  %17 = icmp eq i32 %15, %13
  br i1 %17, label %25, label %18

18:                                               ; preds = %14
  %19 = add i32 %15, 1
  store i32 %19, i32* @i, align 4, !tbaa !5
  %20 = sdiv i32 %16, %6
  %21 = mul nsw i32 %20, %3
  %22 = add nsw i32 %21, %4
  %23 = srem i32 %22, %6
  %24 = icmp eq i32 %23, 0
  br i1 %24, label %14, label %25

25:                                               ; preds = %14, %18, %7
  %26 = phi i32 [ %8, %7 ], [ %19, %18 ], [ %13, %14 ]
  %27 = phi i32 [ %9, %7 ], [ %22, %18 ], [ %16, %14 ]
  %28 = icmp ne i32 %26, %3
  %29 = icmp eq i32 %27, 0
  %30 = select i1 %28, i1 true, i1 %29
  br i1 %30, label %31, label %33

31:                                               ; preds = %25
  %32 = add nuw nsw i32 %9, 1
  store i32 0, i32* @i, align 4, !tbaa !5
  br label %7

33:                                               ; preds = %25
  %34 = tail call nonnull align 8 dereferenceable(8) %"class.std::basic_ostream"* @_ZNSolsEi(%"class.std::basic_ostream"* nonnull align 8 dereferenceable(8) @_ZSt4cout, i32 %27)
  store i32 0, i32* @i, align 4, !tbaa !5
  ret i32 0
}

declare nonnull align 8 dereferenceable(16) %"class.std::basic_istream"* @_ZNSirsERi(%"class.std::basic_istream"* nonnull align 8 dereferenceable(16), i32* nonnull align 4 dereferenceable(4)) local_unnamed_addr #0

declare nonnull align 8 dereferenceable(8) %"class.std::basic_ostream"* @_ZNSolsEi(%"class.std::basic_ostream"* nonnull align 8 dereferenceable(8), i32) local_unnamed_addr #0

; Function Attrs: sspstrong uwtable
define internal void @_GLOBAL__sub_I_1256.cpp() #5 section ".text.startup" {
  tail call void @_ZNSt8ios_base4InitC1Ev(%"class.std::ios_base::Init"* nonnull align 1 dereferenceable(1) @_ZStL8__ioinit)
  %1 = tail call i32 @__cxa_atexit(void (i8*)* bitcast (void (%"class.std::ios_base::Init"*)* @_ZNSt8ios_base4InitD1Ev to void (i8*)*), i8* getelementptr inbounds (%"class.std::ios_base::Init", %"class.std::ios_base::Init"* @_ZStL8__ioinit, i64 0, i32 0), i8* nonnull @__dso_handle) #7
  ret void
}

; Function Attrs: nofree nosync nounwind readnone speculatable willreturn
declare i32 @llvm.smax.i32(i32, i32) #6


!llvm.module.flags = !{!0, !1, !2, !3}
!llvm.ident = !{!4}

!0 = !{i32 1, !"wchar_size", i32 4}
!1 = !{i32 7, !"PIC Level", i32 2}
!2 = !{i32 7, !"PIE Level", i32 2}
!3 = !{i32 7, !"uwtable", i32 1}
!4 = !{!"clang version 13.0.0"}
!5 = !{!6, !6, i64 0}
!6 = !{!"int", !7, i64 0}
!7 = !{!"omnipotent char", !8, i64 0}
!8 = !{!"Simple C++ TBAA"}
